target datalayout = "e-m:e-p270:32:32-p271:32:32-p272:64:64-i64:64-i128:128-f80:128-n8:16:32:64-S128"
target triple = "x86_64-pc-linux-gnu"

%"class.google::protobuf::internal::SymbolBase" = type { i8 }
%"class.google::protobuf::Reflection" = type <{ ptr, %"struct.google::protobuf::internal::ReflectionSchema", ptr, ptr, i32, [4 x i8] }>
%"struct.google::protobuf::internal::ReflectionSchema" = type { ptr, ptr, ptr, i32, i32, i32, i32, i32, i32, ptr, i32 }
%"class.google::protobuf::Descriptor" = type { %"class.google::protobuf::internal::SymbolBase", i8, i16, i32, ptr, ptr, ptr, ptr, ptr, ptr, ptr, ptr, ptr, ptr, ptr, ptr, i32, i32, i32, i32, i32, i32, i32, i32 }

; Function Attrs: inlinehint mustprogress nounwind uwtable
define linkonce_odr hidden noundef i32 @_ZNK6google8protobuf10Descriptor11field_countEv(ptr noundef nonnull align 8 dereferenceable(136) %0) #6 comdat align 2 {
  %2 = alloca ptr, align 8
  store ptr %0, ptr %2, align 8, !tbaa !25
  %3 = load ptr, ptr %2, align 8
  %4 = getelementptr inbounds nuw %"class.google::protobuf::Descriptor", ptr %3, i32 0, i32 3
  %5 = load i32, ptr %4, align 4, !tbaa !42
  ret i32 %5
}

; Function Attrs: mustprogress uwtable
define hidden void @_ZN6google8protobuf10ReflectionC2EPKNS0_10DescriptorERKNS0_8internal16ReflectionSchemaEPKNS0_14DescriptorPoolEPNS0_14MessageFactoryE(ptr noundef nonnull align 8 dereferenceable(96) %0, ptr noundef %1, ptr noundef nonnull align 8 dereferenceable(64) %2, ptr noundef %3, ptr noundef %4) unnamed_addr #4 align 2 {
  %6 = alloca ptr, align 8
  %7 = alloca ptr, align 8
  %8 = alloca ptr, align 8
  %9 = alloca ptr, align 8
  %10 = alloca ptr, align 8
  store ptr %0, ptr %6, align 8, !tbaa !23
  store ptr %1, ptr %7, align 8, !tbaa !25
  store ptr %2, ptr %8, align 8, !tbaa !27
  store ptr %3, ptr %9, align 8, !tbaa !29
  store ptr %4, ptr %10, align 8, !tbaa !31
  %11 = load ptr, ptr %6, align 8
  %12 = getelementptr inbounds nuw %"class.google::protobuf::Reflection", ptr %11, i32 0, i32 0
  %13 = load ptr, ptr %7, align 8, !tbaa !25
  store ptr %13, ptr %12, align 8, !tbaa !33
  %14 = getelementptr inbounds nuw %"class.google::protobuf::Reflection", ptr %11, i32 0, i32 1
  %15 = load ptr, ptr %8, align 8, !tbaa !27
  call void @llvm.memcpy.p0.p0.i64(ptr align 8 %14, ptr align 8 %15, i64 64, i1 false), !tbaa.struct !37
  %16 = getelementptr inbounds nuw %"class.google::protobuf::Reflection", ptr %11, i32 0, i32 2
  %17 = load ptr, ptr %9, align 8, !tbaa !29
  %18 = icmp eq ptr %17, null
  br i1 %18, label %19, label %21

19:                                               ; preds = %5
  %20 = call noundef ptr @_ZN6google8protobuf14DescriptorPool23internal_generated_poolEv()
  br label %23

21:                                               ; preds = %5
  %22 = load ptr, ptr %9, align 8, !tbaa !29
  br label %23

23:                                               ; preds = %21, %19
  %24 = phi ptr [ %20, %19 ], [ %22, %21 ]
  store ptr %24, ptr %16, align 8, !tbaa !39
  %25 = getelementptr inbounds nuw %"class.google::protobuf::Reflection", ptr %11, i32 0, i32 3
  %26 = load ptr, ptr %10, align 8, !tbaa !31
  store ptr %26, ptr %25, align 8, !tbaa !40
  %27 = getelementptr inbounds nuw %"class.google::protobuf::Reflection", ptr %11, i32 0, i32 4
  store i32 -1, ptr %27, align 8, !tbaa !41
  %28 = getelementptr inbounds nuw %"class.google::protobuf::Reflection", ptr %11, i32 0, i32 0
  %29 = load ptr, ptr %28, align 8, !tbaa !33
  %30 = call noundef i32 @_ZNK6google8protobuf10Descriptor11field_countEv(ptr noundef nonnull align 8 dereferenceable(136) %29)
  %31 = sub nsw i32 %30, 1
  %32 = getelementptr inbounds nuw %"class.google::protobuf::Reflection", ptr %11, i32 0, i32 4
  store i32 %31, ptr %32, align 8, !tbaa !41
  ret void
}