; Function Attrs: mustprogress uwtable
define hidden void @_ZN6google8protobuf10ReflectionC2EPKNS0_10DescriptorERKNS0_8internal16ReflectionSchemaEPKNS0_14DescriptorPoolEPNS0_14MessageFactoryE(ptr noundef nonnull align 8 captures(none) dereferenceable(96) initializes((0, 92)) %0, ptr noundef %1, ptr noundef nonnull readonly align 8 captures(none) dereferenceable(64) %2, ptr noundef %3, ptr noundef %4) unnamed_addr #3 align 2 {
  store ptr %1, ptr %0, align 8, !tbaa !18
  %6 = getelementptr inbounds nuw i8, ptr %0, i64 8
  tail call void @llvm.memcpy.p0.p0.i64(ptr noundef nonnull align 8 dereferenceable(64) %6, ptr noundef nonnull align 8 dereferenceable(64) %2, i64 64, i1 false), !tbaa.struct !26
  %7 = icmp eq ptr %3, null
  br i1 %7, label %8, label %10

8:                                                ; preds = %5
  %9 = tail call noundef ptr @_ZN6google8protobuf14DescriptorPool23internal_generated_poolEv()
  %.pre = load ptr, ptr %0, align 8, !tbaa !18
  br label %10

10:                                               ; preds = %5, %8
  %11 = phi ptr [ %.pre, %8 ], [ %1, %5 ]
  %12 = phi ptr [ %9, %8 ], [ %3, %5 ]
  %13 = getelementptr inbounds nuw i8, ptr %0, i64 72
  store ptr %12, ptr %13, align 8, !tbaa !29
  %14 = getelementptr inbounds nuw i8, ptr %0, i64 80
  store ptr %4, ptr %14, align 8, !tbaa !30
  %15 = getelementptr inbounds nuw i8, ptr %0, i64 88
  %16 = getelementptr inbounds nuw i8, ptr %11, i64 4
  %17 = load i32, ptr %16, align 4, !tbaa !31
  %18 = add nsw i32 %17, -1
  store i32 %18, ptr %15, align 8, !tbaa !43
  ret void
}